target datalayout = "e-m:e-p270:32:32-p271:32:32-p272:64:64-i64:64-i128:128-f80:128-n8:16:32:64-S128"
target triple = "x86_64-pc-linux-gnu"

%struct.EVP_RC2_KEY = type { i32, %struct.rc2_key_st }
%struct.rc2_key_st = type { [64 x i32] }

; Function Attrs: nounwind uwtable
define internal i32 @rc2_ctrl(ptr noundef %0, i32 noundef %1, i32 noundef %2, ptr noundef %3) #0 {
  %5 = alloca i32, align 4
  %6 = alloca ptr, align 8
  %7 = alloca i32, align 4
  %8 = alloca i32, align 4
  %9 = alloca ptr, align 8
  store ptr %0, ptr %6, align 8, !tbaa !3
  store i32 %1, ptr %7, align 4, !tbaa !10
  store i32 %2, ptr %8, align 4, !tbaa !10
  store ptr %3, ptr %9, align 8, !tbaa !21
  %10 = load i32, ptr %7, align 4, !tbaa !10
  switch i32 %10, label %33 [
    i32 0, label %11
    i32 2, label %18
    i32 3, label %24
  ]

11:                                               ; preds = %4
  %12 = load ptr, ptr %6, align 8, !tbaa !3
  %13 = call i32 @EVP_CIPHER_CTX_get_key_length(ptr noundef %12)
  %14 = mul nsw i32 %13, 8
  %15 = load ptr, ptr %6, align 8, !tbaa !3
  %16 = call ptr @EVP_CIPHER_CTX_get_cipher_data(ptr noundef %15)
  %17 = getelementptr inbounds nuw %struct.EVP_RC2_KEY, ptr %16, i32 0, i32 0
  store i32 %14, ptr %17, align 4, !tbaa !12
  store i32 1, ptr %5, align 4
  br label %34

18:                                               ; preds = %4
  %19 = load ptr, ptr %6, align 8, !tbaa !3
  %20 = call ptr @EVP_CIPHER_CTX_get_cipher_data(ptr noundef %19)
  %21 = getelementptr inbounds nuw %struct.EVP_RC2_KEY, ptr %20, i32 0, i32 0
  %22 = load i32, ptr %21, align 4, !tbaa !12
  %23 = load ptr, ptr %9, align 8, !tbaa !21
  store i32 %22, ptr %23, align 4, !tbaa !10
  store i32 1, ptr %5, align 4
  br label %34

24:                                               ; preds = %4
  %25 = load i32, ptr %8, align 4, !tbaa !10
  %26 = icmp sgt i32 %25, 0
  br i1 %26, label %27, label %32

27:                                               ; preds = %24
  %28 = load i32, ptr %8, align 4, !tbaa !10
  %29 = load ptr, ptr %6, align 8, !tbaa !3
  %30 = call ptr @EVP_CIPHER_CTX_get_cipher_data(ptr noundef %29)
  %31 = getelementptr inbounds nuw %struct.EVP_RC2_KEY, ptr %30, i32 0, i32 0
  store i32 %28, ptr %31, align 4, !tbaa !12
  store i32 1, ptr %5, align 4
  br label %34

32:                                               ; preds = %24
  store i32 0, ptr %5, align 4
  br label %34

33:                                               ; preds = %4
  store i32 -1, ptr %5, align 4
  br label %34

34:                                               ; preds = %33, %32, %27, %18, %11
  %35 = load i32, ptr %5, align 4
  ret i32 %35
}