; Function Attrs: nounwind uwtable
define internal range(i32 -1, 2) i32 @rc2_ctrl(ptr noundef %0, i32 noundef %1, i32 noundef %2, ptr noundef writeonly captures(none) %3) #1 {
  switch i32 %1, label %16 [
    i32 0, label %5
    i32 2, label %9
    i32 3, label %12
  ]

5:                                                ; preds = %4
  %6 = tail call i32 @EVP_CIPHER_CTX_get_key_length(ptr noundef %0) #6
  %7 = shl nsw i32 %6, 3
  %8 = tail call ptr @EVP_CIPHER_CTX_get_cipher_data(ptr noundef %0) #6
  store i32 %7, ptr %8, align 4, !tbaa !3
  br label %16

9:                                                ; preds = %4
  %10 = tail call ptr @EVP_CIPHER_CTX_get_cipher_data(ptr noundef %0) #6
  %11 = load i32, ptr %10, align 4, !tbaa !3
  store i32 %11, ptr %3, align 4, !tbaa !11
  br label %16

12:                                               ; preds = %4
  %13 = icmp sgt i32 %2, 0
  br i1 %13, label %14, label %16

14:                                               ; preds = %12
  %15 = tail call ptr @EVP_CIPHER_CTX_get_cipher_data(ptr noundef %0) #6
  store i32 %2, ptr %15, align 4, !tbaa !3
  br label %16

16:                                               ; preds = %4, %12, %14, %9, %5
  %.0 = phi i32 [ 1, %14 ], [ 1, %9 ], [ 1, %5 ], [ 0, %12 ], [ -1, %4 ]
  ret i32 %.0
}